; Function Attrs: mustprogress uwtable
define noundef nonnull align 8 dereferenceable(8) ptr @_ZN3gmx19DensityFittingForceaSERKS0_(ptr noundef nonnull readonly returned align 8 dereferenceable(8) %0, ptr noundef nonnull readonly align 8 captures(none) dereferenceable(8) %1) local_unnamed_addr #0 align 2 {
  %.sroa.03.i.i.i = alloca { [8 x i8], %"class.gmx::layout_right::mapping" }, align 8
  %3 = load ptr, ptr %1, align 8, !tbaa !52
  %4 = load ptr, ptr %0, align 8, !tbaa !52
  tail call void @llvm.memcpy.p0.p0.i64(ptr noundef nonnull align 8 dereferenceable(128) %4, ptr noundef nonnull align 8 dereferenceable(128) %3, i64 36, i1 false)
  %5 = getelementptr inbounds nuw i8, ptr %4, i64 40
  %6 = getelementptr inbounds nuw i8, ptr %3, i64 40
  br label %7

7:                                                ; preds = %7, %2
  %.05.i.i = phi i64 [ 0, %2 ], [ %11, %7 ]
  %8 = getelementptr inbounds nuw [3 x %"class.gmx::GaussianOn1DLattice"], ptr %5, i64 0, i64 %.05.i.i
  %9 = getelementptr inbounds nuw [3 x %"class.gmx::GaussianOn1DLattice"], ptr %6, i64 0, i64 %.05.i.i
  %10 = tail call noundef nonnull align 8 dereferenceable(8) ptr @_ZN3gmx19GaussianOn1DLatticeaSERKS0_(ptr noundef nonnull align 8 dereferenceable(8) %8, ptr noundef nonnull align 8 dereferenceable(8) %9)
  %11 = add nuw nsw i64 %.05.i.i, 1
  %.not.i.i = icmp eq i64 %11, 3
  br i1 %.not.i.i, label %_ZN3gmx19DensityFittingForce4ImplaSERKS1_.exit, label %7, !llvm.loop !62

_ZN3gmx19DensityFittingForce4ImplaSERKS1_.exit:   ; preds = %7
  %12 = getelementptr inbounds nuw i8, ptr %4, i64 64
  %13 = getelementptr inbounds nuw i8, ptr %3, i64 64
  %14 = tail call noundef nonnull align 8 dereferenceable(24) ptr @_ZNSt6vectorIfSaIfEEaSERKS1_(ptr noundef nonnull align 8 dereferenceable(64) %12, ptr noundef nonnull align 8 dereferenceable(64) %13)
  call void @llvm.lifetime.start.p0(i64 32, ptr nonnull %.sroa.03.i.i.i)
  %15 = load ptr, ptr %12, align 8, !tbaa !54
  %16 = getelementptr inbounds nuw i8, ptr %3, i64 96
  %.sroa.03.8..sroa_idx.i.i.i = getelementptr inbounds nuw i8, ptr %.sroa.03.i.i.i, i64 8
  call void @llvm.memcpy.p0.p0.i64(ptr noundef nonnull align 8 dereferenceable(24) %.sroa.03.8..sroa_idx.i.i.i, ptr noundef nonnull align 8 dereferenceable(24) %16, i64 24, i1 false)
  %17 = getelementptr inbounds nuw i8, ptr %4, i64 88
  call void @llvm.memcpy.p0.p0.i64(ptr noundef nonnull align 8 dereferenceable(32) %17, ptr noundef nonnull align 8 dereferenceable(32) %.sroa.03.i.i.i, i64 32, i1 false), !tbaa.struct !15
  %.sroa.4.0..sroa_idx.i.i.i = getelementptr inbounds nuw i8, ptr %4, i64 120
  store ptr %15, ptr %.sroa.4.0..sroa_idx.i.i.i, align 8, !tbaa !16
  call void @llvm.lifetime.end.p0(i64 32, ptr nonnull %.sroa.03.i.i.i)
  ret ptr %0
}